target datalayout = "e-m:e-p270:32:32-p271:32:32-p272:64:64-i64:64-i128:128-f80:128-n8:16:32:64-S128"
target triple = "x86_64-pc-linux-gnu"

%union.pthread_mutex_t = type { %struct.__pthread_mutex_s }
%struct.__pthread_mutex_s = type { i32, i32, i32, i32, i32, i16, i16, %struct.__pthread_internal_list }
%struct.__pthread_internal_list = type { ptr, ptr }
%struct.stepd_step_task_info_t = type { %union.pthread_mutex_t, i32, ptr, i32, i32, i32, ptr, ptr, ptr, i32, i32, i32, i32, i32, i32, ptr, ptr, ptr, i8, i8, i8, i8, i32, i32, ptr }

@.str.20 = private unnamed_addr constant [16 x i8] c"dup2(stdin): %m\00", align 1
@.str.21 = private unnamed_addr constant [17 x i8] c"dup2(stdout): %m\00", align 1
@.str.22 = private unnamed_addr constant [17 x i8] c"dup2(stderr): %m\00", align 1

; Function Attrs: nounwind uwtable
define dso_local i32 @io_dup_stdio(ptr noundef %0) #0 {
  %2 = alloca i32, align 4
  %3 = alloca ptr, align 8
  store ptr %0, ptr %3, align 8
  %4 = load ptr, ptr %3, align 8
  %5 = getelementptr inbounds nuw %struct.stepd_step_task_info_t, ptr %4, i32 0, i32 9
  %6 = load i32, ptr %5, align 8
  %7 = call i32 @dup2(i32 noundef %6, i32 noundef 0) #10
  %8 = icmp slt i32 %7, 0
  br i1 %8, label %9, label %11

9:                                                ; preds = %1
  %10 = call i32 (ptr, ...) @error(ptr noundef @.str.20)
  store i32 -1, ptr %2, align 4
  br label %28

11:                                               ; preds = %1
  call void @fd_set_noclose_on_exec(i32 noundef 0)
  %12 = load ptr, ptr %3, align 8
  %13 = getelementptr inbounds nuw %struct.stepd_step_task_info_t, ptr %12, i32 0, i32 10
  %14 = load i32, ptr %13, align 4
  %15 = call i32 @dup2(i32 noundef %14, i32 noundef 1) #10
  %16 = icmp slt i32 %15, 0
  br i1 %16, label %17, label %19

17:                                               ; preds = %11
  %18 = call i32 (ptr, ...) @error(ptr noundef @.str.21)
  store i32 -1, ptr %2, align 4
  br label %28

19:                                               ; preds = %11
  call void @fd_set_noclose_on_exec(i32 noundef 1)
  %20 = load ptr, ptr %3, align 8
  %21 = getelementptr inbounds nuw %struct.stepd_step_task_info_t, ptr %20, i32 0, i32 11
  %22 = load i32, ptr %21, align 8
  %23 = call i32 @dup2(i32 noundef %22, i32 noundef 2) #10
  %24 = icmp slt i32 %23, 0
  br i1 %24, label %25, label %27

25:                                               ; preds = %19
  %26 = call i32 (ptr, ...) @error(ptr noundef @.str.22)
  store i32 -1, ptr %2, align 4
  br label %28

27:                                               ; preds = %19
  call void @fd_set_noclose_on_exec(i32 noundef 2)
  store i32 0, ptr %2, align 4
  br label %28

28:                                               ; preds = %27, %25, %17, %9
  %29 = load i32, ptr %2, align 4
  ret i32 %29
}