; Function Attrs: nounwind uwtable
define dso_local range(i32 -1, 1) i32 @io_dup_stdio(ptr noundef readonly captures(none) %0) local_unnamed_addr #0 {
  %2 = getelementptr inbounds nuw i8, ptr %0, i64 96
  %3 = load i32, ptr %2, align 8
  %4 = tail call i32 @dup2(i32 noundef %3, i32 noundef 0) #11
  %5 = icmp slt i32 %4, 0
  br i1 %5, label %6, label %8

6:                                                ; preds = %1
  %7 = tail call i32 (ptr, ...) @error(ptr noundef nonnull @.str.20) #11
  br label %23

8:                                                ; preds = %1
  tail call void @fd_set_noclose_on_exec(i32 noundef 0) #11
  %9 = getelementptr inbounds nuw i8, ptr %0, i64 100
  %10 = load i32, ptr %9, align 4
  %11 = tail call i32 @dup2(i32 noundef %10, i32 noundef 1) #11
  %12 = icmp slt i32 %11, 0
  br i1 %12, label %13, label %15

13:                                               ; preds = %8
  %14 = tail call i32 (ptr, ...) @error(ptr noundef nonnull @.str.21) #11
  br label %23

15:                                               ; preds = %8
  tail call void @fd_set_noclose_on_exec(i32 noundef 1) #11
  %16 = getelementptr inbounds nuw i8, ptr %0, i64 104
  %17 = load i32, ptr %16, align 8
  %18 = tail call i32 @dup2(i32 noundef %17, i32 noundef 2) #11
  %19 = icmp slt i32 %18, 0
  br i1 %19, label %20, label %22

20:                                               ; preds = %15
  %21 = tail call i32 (ptr, ...) @error(ptr noundef nonnull @.str.22) #11
  br label %23

22:                                               ; preds = %15
  tail call void @fd_set_noclose_on_exec(i32 noundef 2) #11
  br label %23

23:                                               ; preds = %22, %20, %13, %6
  %.0 = phi i32 [ -1, %6 ], [ -1, %13 ], [ -1, %20 ], [ 0, %22 ]
  ret i32 %.0
}